target datalayout = "e-m:e-p270:32:32-p271:32:32-p272:64:64-i64:64-i128:128-f80:128-n8:16:32:64-S128"
target triple = "x86_64-pc-linux-gnu"

%struct.LexState = type { i32, i32, i32, %struct.Token, %struct.Token, ptr, ptr, ptr, ptr, ptr, ptr, ptr, ptr }
%struct.Token = type { i32, %union.SemInfo }
%union.SemInfo = type { double }

@luai_ctype_ = external hidden constant [257 x i8], align 16
@.str.1 = private unnamed_addr constant [5 x i8] c"'%c'\00", align 1
@.str.2 = private unnamed_addr constant [8 x i8] c"'<\\%d>'\00", align 1
@.str.3 = private unnamed_addr constant [5 x i8] c"'%s'\00", align 1

; Function Attrs: nounwind uwtable
define hidden ptr @luaX_token2str(ptr noundef %0, i32 noundef %1) #0 {
  %3 = alloca ptr, align 8
  %4 = alloca ptr, align 8
  %5 = alloca i32, align 4
  %6 = alloca ptr, align 8
  %7 = alloca i32, align 4
  store ptr %0, ptr %4, align 8, !tbaa !18
  store i32 %1, ptr %5, align 4, !tbaa !11
  %8 = load i32, ptr %5, align 4, !tbaa !11
  %9 = icmp slt i32 %8, 256
  br i1 %9, label %10, label %31

10:                                               ; preds = %2
  %11 = load i32, ptr %5, align 4, !tbaa !11
  %12 = add nsw i32 %11, 1
  %13 = sext i32 %12 to i64
  %14 = getelementptr inbounds [257 x i8], ptr @luai_ctype_, i64 0, i64 %13
  %15 = load i8, ptr %14, align 1, !tbaa !20
  %16 = zext i8 %15 to i32
  %17 = and i32 %16, 4
  %18 = icmp ne i32 %17, 0
  br i1 %18, label %19, label %25

19:                                               ; preds = %10
  %20 = load ptr, ptr %4, align 8, !tbaa !18
  %21 = getelementptr inbounds nuw %struct.LexState, ptr %20, i32 0, i32 6
  %22 = load ptr, ptr %21, align 8, !tbaa !21
  %23 = load i32, ptr %5, align 4, !tbaa !11
  %24 = call ptr (ptr, ptr, ...) @luaO_pushfstring(ptr noundef %22, ptr noundef @.str.1, i32 noundef %23)
  store ptr %24, ptr %3, align 8
  br label %48

25:                                               ; preds = %10
  %26 = load ptr, ptr %4, align 8, !tbaa !18
  %27 = getelementptr inbounds nuw %struct.LexState, ptr %26, i32 0, i32 6
  %28 = load ptr, ptr %27, align 8, !tbaa !21
  %29 = load i32, ptr %5, align 4, !tbaa !11
  %30 = call ptr (ptr, ptr, ...) @luaO_pushfstring(ptr noundef %28, ptr noundef @.str.2, i32 noundef %29)
  store ptr %30, ptr %3, align 8
  br label %48

31:                                               ; preds = %2
  call void @llvm.lifetime.start.p0(i64 8, ptr %6) #6
  %32 = load i32, ptr %5, align 4, !tbaa !11
  %33 = sub nsw i32 %32, 256
  %34 = sext i32 %33 to i64
  %35 = getelementptr inbounds [37 x ptr], ptr @luaX_tokens, i64 0, i64 %34
  %36 = load ptr, ptr %35, align 8, !tbaa !13
  store ptr %36, ptr %6, align 8, !tbaa !13
  %37 = load i32, ptr %5, align 4, !tbaa !11
  %38 = icmp slt i32 %37, 288
  br i1 %38, label %39, label %45

39:                                               ; preds = %31
  %40 = load ptr, ptr %4, align 8, !tbaa !18
  %41 = getelementptr inbounds nuw %struct.LexState, ptr %40, i32 0, i32 6
  %42 = load ptr, ptr %41, align 8, !tbaa !21
  %43 = load ptr, ptr %6, align 8, !tbaa !13
  %44 = call ptr (ptr, ptr, ...) @luaO_pushfstring(ptr noundef %42, ptr noundef @.str.3, ptr noundef %43)
  store ptr %44, ptr %3, align 8
  store i32 1, ptr %7, align 4
  br label %47

45:                                               ; preds = %31
  %46 = load ptr, ptr %6, align 8, !tbaa !13
  store ptr %46, ptr %3, align 8
  store i32 1, ptr %7, align 4
  br label %47

47:                                               ; preds = %45, %39
  call void @llvm.lifetime.end.p0(i64 8, ptr %6) #6
  br label %48

48:                                               ; preds = %47, %25, %19
  %49 = load ptr, ptr %3, align 8
  ret ptr %49
}