; Function Attrs: nounwind uwtable
define hidden ptr @luaX_token2str(ptr noundef readonly captures(none) %0, i32 noundef %1) local_unnamed_addr #0 {
  %3 = icmp slt i32 %1, 256
  br i1 %3, label %4, label %16

4:                                                ; preds = %2
  %5 = add nsw i32 %1, 1
  %6 = sext i32 %5 to i64
  %7 = getelementptr inbounds [257 x i8], ptr @luai_ctype_, i64 0, i64 %6
  %8 = load i8, ptr %7, align 1, !tbaa !13
  %9 = and i8 %8, 4
  %.not = icmp eq i8 %9, 0
  %10 = getelementptr inbounds nuw i8, ptr %0, i64 56
  %11 = load ptr, ptr %10, align 8, !tbaa !14
  br i1 %.not, label %14, label %12

12:                                               ; preds = %4
  %13 = tail call ptr (ptr, ptr, ...) @luaO_pushfstring(ptr noundef %11, ptr noundef nonnull @.str.1, i32 noundef %1) #6
  br label %26

14:                                               ; preds = %4
  %15 = tail call ptr (ptr, ptr, ...) @luaO_pushfstring(ptr noundef %11, ptr noundef nonnull @.str.2, i32 noundef %1) #6
  br label %26

16:                                               ; preds = %2
  %17 = add nsw i32 %1, -256
  %18 = zext nneg i32 %17 to i64
  %19 = getelementptr inbounds nuw [37 x ptr], ptr @luaX_tokens, i64 0, i64 %18
  %20 = load ptr, ptr %19, align 8, !tbaa !4
  %21 = icmp samesign ult i32 %1, 288
  br i1 %21, label %22, label %26

22:                                               ; preds = %16
  %23 = getelementptr inbounds nuw i8, ptr %0, i64 56
  %24 = load ptr, ptr %23, align 8, !tbaa !14
  %25 = tail call ptr (ptr, ptr, ...) @luaO_pushfstring(ptr noundef %24, ptr noundef nonnull @.str.3, ptr noundef %20) #6
  br label %26

26:                                               ; preds = %22, %16, %14, %12
  %.0 = phi ptr [ %13, %12 ], [ %15, %14 ], [ %25, %22 ], [ %20, %16 ]
  ret ptr %.0
}